target datalayout = "e-m:e-p270:32:32-p271:32:32-p272:64:64-i64:64-i128:128-f80:128-n8:16:32:64-S128"
target triple = "x86_64-pc-linux-gnu"

%struct.anon = type { i32, [0 x i8] }
%struct.varattrib_1b = type { i8, [0 x i8] }
%struct.varattrib_1b_e = type { i8, i8, [0 x i8] }
%struct.FunctionCallInfoBaseData = type { ptr, ptr, ptr, i32, i8, i16, [0 x %struct.NullableDatum] }
%struct.NullableDatum = type { i64, i8 }
%struct.nameData = type { [64 x i8] }

; Function Attrs: inlinehint nounwind uwtable
define internal i64 @Int32GetDatum(i32 noundef %0) #0 {
  %2 = alloca i32, align 4
  store i32 %0, ptr %2, align 4
  %3 = load i32, ptr %2, align 4
  %4 = sext i32 %3 to i64
  ret i64 %4
}

; Function Attrs: inlinehint nounwind uwtable
define internal ptr @DatumGetPointer(i64 noundef %0) #0 {
  %2 = alloca i64, align 8
  store i64 %0, ptr %2, align 8
  %3 = load i64, ptr %2, align 8
  %4 = inttoptr i64 %3 to ptr
  ret ptr %4
}

; Function Attrs: inlinehint nounwind uwtable
define internal ptr @DatumGetName(i64 noundef %0) #0 {
  %2 = alloca i64, align 8
  store i64 %0, ptr %2, align 8
  %3 = load i64, ptr %2, align 8
  %4 = call ptr @DatumGetPointer(i64 noundef %3)
  ret ptr %4
}

; Function Attrs: nounwind uwtable
define dso_local i64 @btnametextcmp(ptr noundef %0) #1 {
  %2 = alloca ptr, align 8
  %3 = alloca ptr, align 8
  %4 = alloca ptr, align 8
  %5 = alloca i32, align 4
  store ptr %0, ptr %2, align 8
  call void @llvm.lifetime.start.p0(i64 8, ptr %3) #13
  %6 = load ptr, ptr %2, align 8
  %7 = getelementptr inbounds nuw %struct.FunctionCallInfoBaseData, ptr %6, i32 0, i32 6
  %8 = getelementptr inbounds [0 x %struct.NullableDatum], ptr %7, i64 0, i64 0
  %9 = getelementptr inbounds nuw %struct.NullableDatum, ptr %8, i32 0, i32 0
  %10 = load i64, ptr %9, align 8
  %11 = call ptr @DatumGetName(i64 noundef %10)
  store ptr %11, ptr %3, align 8
  call void @llvm.lifetime.start.p0(i64 8, ptr %4) #13
  %12 = load ptr, ptr %2, align 8
  %13 = getelementptr inbounds nuw %struct.FunctionCallInfoBaseData, ptr %12, i32 0, i32 6
  %14 = getelementptr inbounds [0 x %struct.NullableDatum], ptr %13, i64 0, i64 1
  %15 = getelementptr inbounds nuw %struct.NullableDatum, ptr %14, i32 0, i32 0
  %16 = load i64, ptr %15, align 8
  %17 = call ptr @DatumGetPointer(i64 noundef %16)
  %18 = call ptr @pg_detoast_datum_packed(ptr noundef %17)
  store ptr %18, ptr %4, align 8
  call void @llvm.lifetime.start.p0(i64 4, ptr %5) #13
  %19 = load ptr, ptr %3, align 8
  %20 = getelementptr inbounds nuw %struct.nameData, ptr %19, i32 0, i32 0
  %21 = getelementptr inbounds [64 x i8], ptr %20, i64 0, i64 0
  %22 = load ptr, ptr %3, align 8
  %23 = getelementptr inbounds nuw %struct.nameData, ptr %22, i32 0, i32 0
  %24 = getelementptr inbounds [64 x i8], ptr %23, i64 0, i64 0
  %25 = call i64 @strlen(ptr noundef %24) #12
  %26 = trunc i64 %25 to i32
  %27 = load ptr, ptr %4, align 8
  %28 = getelementptr inbounds nuw %struct.varattrib_1b, ptr %27, i32 0, i32 0
  %29 = load i8, ptr %28, align 1
  %30 = zext i8 %29 to i32
  %31 = and i32 %30, 1
  %32 = icmp eq i32 %31, 1
  br i1 %32, label %33, label %37

33:                                               ; preds = %1
  %34 = load ptr, ptr %4, align 8
  %35 = getelementptr inbounds nuw %struct.varattrib_1b, ptr %34, i32 0, i32 1
  %36 = getelementptr inbounds [0 x i8], ptr %35, i64 0, i64 0
  br label %41

37:                                               ; preds = %1
  %38 = load ptr, ptr %4, align 8
  %39 = getelementptr inbounds nuw %struct.anon, ptr %38, i32 0, i32 1
  %40 = getelementptr inbounds [0 x i8], ptr %39, i64 0, i64 0
  br label %41

41:                                               ; preds = %37, %33
  %42 = phi ptr [ %36, %33 ], [ %40, %37 ]
  %43 = load ptr, ptr %4, align 8
  %44 = getelementptr inbounds nuw %struct.varattrib_1b, ptr %43, i32 0, i32 0
  %45 = load i8, ptr %44, align 1
  %46 = zext i8 %45 to i32
  %47 = icmp eq i32 %46, 1
  br i1 %47, label %48, label %76

48:                                               ; preds = %41
  %49 = load ptr, ptr %4, align 8
  %50 = getelementptr inbounds nuw %struct.varattrib_1b_e, ptr %49, i32 0, i32 1
  %51 = load i8, ptr %50, align 1
  %52 = zext i8 %51 to i32
  %53 = icmp eq i32 %52, 1
  br i1 %53, label %54, label %55

54:                                               ; preds = %48
  br label %72

55:                                               ; preds = %48
  %56 = load ptr, ptr %4, align 8
  %57 = getelementptr inbounds nuw %struct.varattrib_1b_e, ptr %56, i32 0, i32 1
  %58 = load i8, ptr %57, align 1
  %59 = zext i8 %58 to i32
  %60 = and i32 %59, -2
  %61 = icmp eq i32 %60, 2
  br i1 %61, label %62, label %63

62:                                               ; preds = %55
  br label %70

63:                                               ; preds = %55
  %64 = load ptr, ptr %4, align 8
  %65 = getelementptr inbounds nuw %struct.varattrib_1b_e, ptr %64, i32 0, i32 1
  %66 = load i8, ptr %65, align 1
  %67 = zext i8 %66 to i32
  %68 = icmp eq i32 %67, 18
  %69 = select i1 %68, i64 16, i64 0
  br label %70

70:                                               ; preds = %63, %62
  %71 = phi i64 [ 8, %62 ], [ %69, %63 ]
  br label %72

72:                                               ; preds = %70, %54
  %73 = phi i64 [ 8, %54 ], [ %71, %70 ]
  %74 = add i64 2, %73
  %75 = sub i64 %74, 2
  br label %102

76:                                               ; preds = %41
  %77 = load ptr, ptr %4, align 8
  %78 = getelementptr inbounds nuw %struct.varattrib_1b, ptr %77, i32 0, i32 0
  %79 = load i8, ptr %78, align 1
  %80 = zext i8 %79 to i32
  %81 = and i32 %80, 1
  %82 = icmp eq i32 %81, 1
  br i1 %82, label %83, label %92

83:                                               ; preds = %76
  %84 = load ptr, ptr %4, align 8
  %85 = getelementptr inbounds nuw %struct.varattrib_1b, ptr %84, i32 0, i32 0
  %86 = load i8, ptr %85, align 1
  %87 = zext i8 %86 to i32
  %88 = ashr i32 %87, 1
  %89 = and i32 %88, 127
  %90 = sext i32 %89 to i64
  %91 = sub i64 %90, 1
  br label %100

92:                                               ; preds = %76
  %93 = load ptr, ptr %4, align 8
  %94 = getelementptr inbounds nuw %struct.anon, ptr %93, i32 0, i32 0
  %95 = load i32, ptr %94, align 4
  %96 = lshr i32 %95, 2
  %97 = and i32 %96, 1073741823
  %98 = sub i32 %97, 4
  %99 = zext i32 %98 to i64
  br label %100

100:                                              ; preds = %92, %83
  %101 = phi i64 [ %91, %83 ], [ %99, %92 ]
  br label %102

102:                                              ; preds = %100, %72
  %103 = phi i64 [ %75, %72 ], [ %101, %100 ]
  %104 = trunc i64 %103 to i32
  %105 = load ptr, ptr %2, align 8
  %106 = getelementptr inbounds nuw %struct.FunctionCallInfoBaseData, ptr %105, i32 0, i32 3
  %107 = load i32, ptr %106, align 8
  %108 = call i32 @varstr_cmp(ptr noundef %21, i32 noundef %26, ptr noundef %42, i32 noundef %104, i32 noundef %107)
  store i32 %108, ptr %5, align 4
  br label %109

109:                                              ; preds = %102
  %110 = load ptr, ptr %4, align 8
  %111 = load ptr, ptr %2, align 8
  %112 = getelementptr inbounds nuw %struct.FunctionCallInfoBaseData, ptr %111, i32 0, i32 6
  %113 = getelementptr inbounds [0 x %struct.NullableDatum], ptr %112, i64 0, i64 1
  %114 = getelementptr inbounds nuw %struct.NullableDatum, ptr %113, i32 0, i32 0
  %115 = load i64, ptr %114, align 8
  %116 = call ptr @DatumGetPointer(i64 noundef %115)
  %117 = icmp ne ptr %110, %116
  br i1 %117, label %118, label %120

118:                                              ; preds = %109
  %119 = load ptr, ptr %4, align 8
  call void @pfree(ptr noundef %119)
  br label %120

120:                                              ; preds = %118, %109
  br label %121

121:                                              ; preds = %120
  br label %122

122:                                              ; preds = %121
  %123 = load i32, ptr %5, align 4
  %124 = call i64 @Int32GetDatum(i32 noundef %123)
  call void @llvm.lifetime.end.p0(i64 4, ptr %5) #13
  call void @llvm.lifetime.end.p0(i64 8, ptr %4) #13
  call void @llvm.lifetime.end.p0(i64 8, ptr %3) #13
  ret i64 %124
}