; Function Attrs: nounwind uwtable
define dso_local range(i64 -2147483648, 2147483648) i64 @btnametextcmp(ptr noundef readonly captures(none) %0) #0 {
  %2 = getelementptr inbounds nuw i8, ptr %0, i64 32
  %3 = load i64, ptr %2, align 8
  %4 = inttoptr i64 %3 to ptr
  %5 = getelementptr inbounds nuw i8, ptr %0, i64 48
  %6 = load i64, ptr %5, align 8
  %7 = inttoptr i64 %6 to ptr
  %8 = tail call ptr @pg_detoast_datum_packed(ptr noundef %7) #19
  %9 = tail call i64 @strlen(ptr noundef nonnull dereferenceable(1) %4) #18
  %10 = trunc i64 %9 to i32
  %11 = load i8, ptr %8, align 1
  %12 = zext i8 %11 to i32
  %13 = and i32 %12, 1
  %.not = icmp eq i32 %13, 0
  %14 = getelementptr inbounds nuw i8, ptr %8, i64 1
  %15 = getelementptr inbounds nuw i8, ptr %8, i64 4
  %16 = select i1 %.not, ptr %15, ptr %14
  %17 = icmp eq i8 %11, 1
  br i1 %17, label %18, label %26

18:                                               ; preds = %1
  %19 = load i8, ptr %14, align 1
  %20 = icmp eq i8 %19, 1
  %21 = and i8 %19, -2
  %22 = icmp eq i8 %21, 2
  %or.cond = or i1 %20, %22
  %23 = icmp eq i8 %19, 18
  %24 = select i1 %23, i32 16, i32 0
  %25 = select i1 %or.cond, i32 8, i32 %24
  br label %34

26:                                               ; preds = %1
  br i1 %.not, label %30, label %27

27:                                               ; preds = %26
  %28 = lshr i32 %12, 1
  %29 = add nsw i32 %28, -1
  br label %34

30:                                               ; preds = %26
  %31 = load i32, ptr %8, align 4
  %32 = lshr i32 %31, 2
  %33 = add nsw i32 %32, -4
  br label %34

34:                                               ; preds = %27, %30, %18
  %35 = phi i32 [ %25, %18 ], [ %29, %27 ], [ %33, %30 ]
  %36 = getelementptr inbounds nuw i8, ptr %0, i64 24
  %37 = load i32, ptr %36, align 8
  %38 = tail call i32 @varstr_cmp(ptr noundef nonnull %4, i32 noundef %10, ptr noundef nonnull %16, i32 noundef %35, i32 noundef %37)
  %39 = load i64, ptr %5, align 8
  %40 = inttoptr i64 %39 to ptr
  %.not20 = icmp eq ptr %8, %40
  br i1 %.not20, label %42, label %41

41:                                               ; preds = %34
  tail call void @pfree(ptr noundef nonnull %8) #19
  br label %42

42:                                               ; preds = %41, %34
  %43 = sext i32 %38 to i64
  ret i64 %43
}